target datalayout = "e-m:e-p270:32:32-p271:32:32-p272:64:64-i64:64-i128:128-f80:128-n8:16:32:64-S128"
target triple = "x86_64-pc-linux-gnu"

%struct.sline = type { ptr, i32, %struct.plost, ptr, i32, i64, ptr }
%struct.plost = type { ptr, ptr, i32 }
%struct.lline = type { ptr, ptr, i32, i64, [0 x i8] }
%struct.combine_diff_state = type { i32, i32, i32, i32, i32, i64, i32, i32, ptr, ptr }

@.str.47 = private unnamed_addr constant [27 x i8] c"size_t overflow: %lu + %lu\00", align 1

; Function Attrs: inlinehint nounwind uwtable
define internal i64 @st_add(i64 noundef %0, i64 noundef %1) #5 {
  %3 = alloca i64, align 8
  %4 = alloca i64, align 8
  store i64 %0, ptr %3, align 8, !tbaa !84
  store i64 %1, ptr %4, align 8, !tbaa !84
  %5 = load i64, ptr %4, align 8, !tbaa !84
  %6 = load i64, ptr %3, align 8, !tbaa !84
  %7 = sub i64 -1, %6
  %8 = icmp ugt i64 %5, %7
  br i1 %8, label %9, label %12

9:                                                ; preds = %2
  %10 = load i64, ptr %3, align 8, !tbaa !84
  %11 = load i64, ptr %4, align 8, !tbaa !84
  call void (ptr, ...) @die(ptr noundef @.str.47, i64 noundef %10, i64 noundef %11) #10
  unreachable

12:                                               ; preds = %2
  %13 = load i64, ptr %3, align 8, !tbaa !84
  %14 = load i64, ptr %4, align 8, !tbaa !84
  %15 = add i64 %13, %14
  ret i64 %15
}

; Function Attrs: nounwind uwtable
define internal void @append_lost(ptr noundef %0, i32 noundef %1, ptr noundef %2, i32 noundef %3) #0 {
  %5 = alloca ptr, align 8
  %6 = alloca i32, align 4
  %7 = alloca ptr, align 8
  %8 = alloca i32, align 4
  %9 = alloca ptr, align 8
  %10 = alloca i64, align 8
  %11 = alloca i64, align 8
  store ptr %0, ptr %5, align 8, !tbaa !124
  store i32 %1, ptr %6, align 4, !tbaa !9
  store ptr %2, ptr %7, align 8, !tbaa !29
  store i32 %3, ptr %8, align 4, !tbaa !9
  call void @llvm.lifetime.start.p0(i64 8, ptr %9) #9
  call void @llvm.lifetime.start.p0(i64 8, ptr %10) #9
  %12 = load i32, ptr %6, align 4, !tbaa !9
  %13 = zext i32 %12 to i64
  %14 = shl i64 1, %13
  store i64 %14, ptr %10, align 8, !tbaa !84
  %15 = load ptr, ptr %7, align 8, !tbaa !29
  %16 = load i32, ptr %8, align 4, !tbaa !9
  %17 = sub nsw i32 %16, 1
  %18 = sext i32 %17 to i64
  %19 = getelementptr inbounds i8, ptr %15, i64 %18
  %20 = load i8, ptr %19, align 1, !tbaa !122
  %21 = sext i8 %20 to i32
  %22 = icmp eq i32 %21, 10
  br i1 %22, label %23, label %26

23:                                               ; preds = %4
  %24 = load i32, ptr %8, align 4, !tbaa !9
  %25 = add nsw i32 %24, -1
  store i32 %25, ptr %8, align 4, !tbaa !9
  br label %26

26:                                               ; preds = %23, %4
  br label %27

27:                                               ; preds = %26
  call void @llvm.lifetime.start.p0(i64 8, ptr %11) #9
  %28 = load i32, ptr %8, align 4, !tbaa !9
  %29 = sext i32 %28 to i64
  store i64 %29, ptr %11, align 8, !tbaa !84
  %30 = load i64, ptr %11, align 8, !tbaa !84
  %31 = call i64 @st_add(i64 noundef 32, i64 noundef %30)
  %32 = call i64 @st_add(i64 noundef %31, i64 noundef 1)
  %33 = call ptr @xcalloc(i64 noundef 1, i64 noundef %32)
  store ptr %33, ptr %9, align 8, !tbaa !143
  %34 = load ptr, ptr %9, align 8, !tbaa !143
  %35 = getelementptr inbounds nuw %struct.lline, ptr %34, i32 0, i32 4
  %36 = getelementptr inbounds [0 x i8], ptr %35, i64 0, i64 0
  %37 = load ptr, ptr %7, align 8, !tbaa !29
  %38 = load i64, ptr %11, align 8, !tbaa !84
  call void @llvm.memcpy.p0.p0.i64(ptr align 8 %36, ptr align 1 %37, i64 %38, i1 false)
  call void @llvm.lifetime.end.p0(i64 8, ptr %11) #9
  br label %39

39:                                               ; preds = %27
  br label %40

40:                                               ; preds = %39
  %41 = load i32, ptr %8, align 4, !tbaa !9
  %42 = load ptr, ptr %9, align 8, !tbaa !143
  %43 = getelementptr inbounds nuw %struct.lline, ptr %42, i32 0, i32 2
  store i32 %41, ptr %43, align 8, !tbaa !9
  %44 = load ptr, ptr %9, align 8, !tbaa !143
  %45 = getelementptr inbounds nuw %struct.lline, ptr %44, i32 0, i32 0
  store ptr null, ptr %45, align 8, !tbaa !143
  %46 = load ptr, ptr %5, align 8, !tbaa !124
  %47 = getelementptr inbounds nuw %struct.sline, ptr %46, i32 0, i32 2
  %48 = getelementptr inbounds nuw %struct.plost, ptr %47, i32 0, i32 1
  %49 = load ptr, ptr %48, align 8, !tbaa !236
  %50 = load ptr, ptr %9, align 8, !tbaa !143
  %51 = getelementptr inbounds nuw %struct.lline, ptr %50, i32 0, i32 1
  store ptr %49, ptr %51, align 8, !tbaa !143
  %52 = load ptr, ptr %9, align 8, !tbaa !143
  %53 = getelementptr inbounds nuw %struct.lline, ptr %52, i32 0, i32 1
  %54 = load ptr, ptr %53, align 8, !tbaa !143
  %55 = icmp ne ptr %54, null
  br i1 %55, label %56, label %62

56:                                               ; preds = %40
  %57 = load ptr, ptr %9, align 8, !tbaa !143
  %58 = load ptr, ptr %9, align 8, !tbaa !143
  %59 = getelementptr inbounds nuw %struct.lline, ptr %58, i32 0, i32 1
  %60 = load ptr, ptr %59, align 8, !tbaa !143
  %61 = getelementptr inbounds nuw %struct.lline, ptr %60, i32 0, i32 0
  store ptr %57, ptr %61, align 8, !tbaa !143
  br label %67

62:                                               ; preds = %40
  %63 = load ptr, ptr %9, align 8, !tbaa !143
  %64 = load ptr, ptr %5, align 8, !tbaa !124
  %65 = getelementptr inbounds nuw %struct.sline, ptr %64, i32 0, i32 2
  %66 = getelementptr inbounds nuw %struct.plost, ptr %65, i32 0, i32 0
  store ptr %63, ptr %66, align 8, !tbaa !234
  br label %67

67:                                               ; preds = %62, %56
  %68 = load ptr, ptr %9, align 8, !tbaa !143
  %69 = load ptr, ptr %5, align 8, !tbaa !124
  %70 = getelementptr inbounds nuw %struct.sline, ptr %69, i32 0, i32 2
  %71 = getelementptr inbounds nuw %struct.plost, ptr %70, i32 0, i32 1
  store ptr %68, ptr %71, align 8, !tbaa !236
  %72 = load ptr, ptr %5, align 8, !tbaa !124
  %73 = getelementptr inbounds nuw %struct.sline, ptr %72, i32 0, i32 2
  %74 = getelementptr inbounds nuw %struct.plost, ptr %73, i32 0, i32 2
  %75 = load i32, ptr %74, align 8, !tbaa !235
  %76 = add nsw i32 %75, 1
  store i32 %76, ptr %74, align 8, !tbaa !235
  %77 = load i64, ptr %10, align 8, !tbaa !84
  %78 = load ptr, ptr %9, align 8, !tbaa !143
  %79 = getelementptr inbounds nuw %struct.lline, ptr %78, i32 0, i32 3
  store i64 %77, ptr %79, align 8, !tbaa !84
  call void @llvm.lifetime.end.p0(i64 8, ptr %10) #9
  call void @llvm.lifetime.end.p0(i64 8, ptr %9) #9
  ret void
}

; Function Attrs: nounwind uwtable
define internal i32 @consume_line(ptr noundef %0, ptr noundef %1, i64 noundef %2) #0 {
  %4 = alloca i32, align 4
  %5 = alloca ptr, align 8
  %6 = alloca ptr, align 8
  %7 = alloca i64, align 8
  %8 = alloca ptr, align 8
  %9 = alloca i32, align 4
  store ptr %0, ptr %5, align 8, !tbaa !158
  store ptr %1, ptr %6, align 8, !tbaa !29
  store i64 %2, ptr %7, align 8, !tbaa !84
  call void @llvm.lifetime.start.p0(i64 8, ptr %8) #9
  %10 = load ptr, ptr %5, align 8, !tbaa !158
  store ptr %10, ptr %8, align 8, !tbaa !263
  %11 = load ptr, ptr %8, align 8, !tbaa !263
  %12 = getelementptr inbounds nuw %struct.combine_diff_state, ptr %11, i32 0, i32 9
  %13 = load ptr, ptr %12, align 8, !tbaa !269
  %14 = icmp ne ptr %13, null
  br i1 %14, label %16, label %15

15:                                               ; preds = %3
  store i32 0, ptr %4, align 4
  store i32 1, ptr %9, align 4
  br label %54

16:                                               ; preds = %3
  %17 = load ptr, ptr %6, align 8, !tbaa !29
  %18 = getelementptr inbounds i8, ptr %17, i64 0
  %19 = load i8, ptr %18, align 1, !tbaa !122
  %20 = sext i8 %19 to i32
  switch i32 %20, label %53 [
    i32 45, label %21
    i32 43, label %33
  ]

21:                                               ; preds = %16
  %22 = load ptr, ptr %8, align 8, !tbaa !263
  %23 = getelementptr inbounds nuw %struct.combine_diff_state, ptr %22, i32 0, i32 9
  %24 = load ptr, ptr %23, align 8, !tbaa !269
  %25 = load ptr, ptr %8, align 8, !tbaa !263
  %26 = getelementptr inbounds nuw %struct.combine_diff_state, ptr %25, i32 0, i32 7
  %27 = load i32, ptr %26, align 4, !tbaa !233
  %28 = load ptr, ptr %6, align 8, !tbaa !29
  %29 = getelementptr inbounds i8, ptr %28, i64 1
  %30 = load i64, ptr %7, align 8, !tbaa !84
  %31 = sub i64 %30, 1
  %32 = trunc i64 %31 to i32
  call void @append_lost(ptr noundef %24, i32 noundef %27, ptr noundef %29, i32 noundef %32)
  br label %53

33:                                               ; preds = %16
  %34 = load ptr, ptr %8, align 8, !tbaa !263
  %35 = getelementptr inbounds nuw %struct.combine_diff_state, ptr %34, i32 0, i32 5
  %36 = load i64, ptr %35, align 8, !tbaa !228
  %37 = load ptr, ptr %8, align 8, !tbaa !263
  %38 = getelementptr inbounds nuw %struct.combine_diff_state, ptr %37, i32 0, i32 8
  %39 = load ptr, ptr %38, align 8, !tbaa !230
  %40 = load ptr, ptr %8, align 8, !tbaa !263
  %41 = getelementptr inbounds nuw %struct.combine_diff_state, ptr %40, i32 0, i32 0
  %42 = load i32, ptr %41, align 8, !tbaa !231
  %43 = sub i32 %42, 1
  %44 = zext i32 %43 to i64
  %45 = getelementptr inbounds nuw %struct.sline, ptr %39, i64 %44
  %46 = getelementptr inbounds nuw %struct.sline, ptr %45, i32 0, i32 5
  %47 = load i64, ptr %46, align 8, !tbaa !222
  %48 = or i64 %47, %36
  store i64 %48, ptr %46, align 8, !tbaa !222
  %49 = load ptr, ptr %8, align 8, !tbaa !263
  %50 = getelementptr inbounds nuw %struct.combine_diff_state, ptr %49, i32 0, i32 0
  %51 = load i32, ptr %50, align 8, !tbaa !231
  %52 = add i32 %51, 1
  store i32 %52, ptr %50, align 8, !tbaa !231
  br label %53

53:                                               ; preds = %16, %33, %21
  store i32 0, ptr %4, align 4
  store i32 1, ptr %9, align 4
  br label %54

54:                                               ; preds = %53, %15
  call void @llvm.lifetime.end.p0(i64 8, ptr %8) #9
  %55 = load i32, ptr %4, align 4
  ret i32 %55
}