; Function Attrs: nounwind uwtable
define internal noundef i32 @consume_line(ptr noundef captures(none) %0, ptr noundef readonly captures(none) %1, i64 noundef %2) #0 {
  %4 = getelementptr inbounds nuw i8, ptr %0, i64 48
  %5 = load ptr, ptr %4, align 8, !tbaa !275
  %.not = icmp eq ptr %5, null
  br i1 %.not, label %53, label %6

6:                                                ; preds = %3
  %7 = load i8, ptr %1, align 1, !tbaa !112
  switch i8 %7, label %53 [
    i8 45, label %8
    i8 43, label %41
  ]

8:                                                ; preds = %6
  %9 = getelementptr inbounds nuw i8, ptr %0, i64 36
  %10 = load i32, ptr %9, align 4, !tbaa !141
  %11 = getelementptr inbounds nuw i8, ptr %1, i64 1
  %12 = trunc i64 %2 to i32
  %13 = add i32 %12, -1
  %14 = sext i32 %13 to i64
  %15 = getelementptr i8, ptr %11, i64 %14
  %16 = getelementptr i8, ptr %15, i64 -1
  %17 = load i8, ptr %16, align 1, !tbaa !112
  %18 = icmp eq i8 %17, 10
  %19 = sext i1 %18 to i32
  %spec.select.i = add nsw i32 %13, %19
  %20 = sext i32 %spec.select.i to i64
  %21 = icmp ugt i32 %spec.select.i, -33
  br i1 %21, label %22, label %st_add.exit.i

22:                                               ; preds = %8
  tail call void (ptr, ...) @die(ptr noundef nonnull @.str.47, i64 noundef 32, i64 noundef %20) #16
  unreachable

st_add.exit.i:                                    ; preds = %8
  %23 = icmp eq i32 %spec.select.i, -33
  br i1 %23, label %24, label %st_add.exit24.i

24:                                               ; preds = %st_add.exit.i
  tail call void (ptr, ...) @die(ptr noundef nonnull @.str.47, i64 noundef -1, i64 noundef 1) #16
  unreachable

st_add.exit24.i:                                  ; preds = %st_add.exit.i
  %25 = add nsw i64 %20, 33
  %26 = tail call ptr @xcalloc(i64 noundef 1, i64 noundef %25) #15
  %27 = getelementptr inbounds nuw i8, ptr %26, i64 32
  tail call void @llvm.memcpy.p0.p0.i64(ptr nonnull align 8 %27, ptr nonnull readonly align 1 %11, i64 %20, i1 false)
  %28 = getelementptr inbounds nuw i8, ptr %26, i64 16
  store i32 %spec.select.i, ptr %28, align 8, !tbaa !67
  store ptr null, ptr %26, align 8, !tbaa !127
  %29 = getelementptr inbounds nuw i8, ptr %5, i64 24
  %30 = load ptr, ptr %29, align 8, !tbaa !276
  %31 = getelementptr inbounds nuw i8, ptr %26, i64 8
  store ptr %30, ptr %31, align 8, !tbaa !127
  %.not.i = icmp eq ptr %30, null
  br i1 %.not.i, label %33, label %32

32:                                               ; preds = %st_add.exit24.i
  store ptr %26, ptr %30, align 8, !tbaa !127
  br label %append_lost.exit

33:                                               ; preds = %st_add.exit24.i
  %34 = getelementptr inbounds nuw i8, ptr %5, i64 16
  store ptr %26, ptr %34, align 8, !tbaa !142
  br label %append_lost.exit

append_lost.exit:                                 ; preds = %32, %33
  %35 = zext nneg i32 %10 to i64
  %36 = shl nuw i64 1, %35
  store ptr %26, ptr %29, align 8, !tbaa !276
  %37 = getelementptr inbounds nuw i8, ptr %5, i64 32
  %38 = load i32, ptr %37, align 8, !tbaa !143
  %39 = add nsw i32 %38, 1
  store i32 %39, ptr %37, align 8, !tbaa !143
  %40 = getelementptr inbounds nuw i8, ptr %26, i64 24
  store i64 %36, ptr %40, align 8, !tbaa !76
  br label %53

41:                                               ; preds = %6
  %42 = getelementptr inbounds nuw i8, ptr %0, i64 24
  %43 = load i64, ptr %42, align 8, !tbaa !135
  %44 = getelementptr inbounds nuw i8, ptr %0, i64 40
  %45 = load ptr, ptr %44, align 8, !tbaa !138
  %46 = load i32, ptr %0, align 8, !tbaa !139
  %47 = add i32 %46, -1
  %48 = zext i32 %47 to i64
  %49 = getelementptr inbounds nuw %struct.sline, ptr %45, i64 %48, i32 5
  %50 = load i64, ptr %49, align 8, !tbaa !129
  %51 = or i64 %50, %43
  store i64 %51, ptr %49, align 8, !tbaa !129
  %52 = add i32 %46, 1
  store i32 %52, ptr %0, align 8, !tbaa !139
  br label %53

53:                                               ; preds = %6, %append_lost.exit, %41, %3
  ret i32 0
}